target datalayout = "e-m:e-p270:32:32-p271:32:32-p272:64:64-i64:64-i128:128-f80:128-n8:16:32:64-S128"
target triple = "x86_64-pc-linux-gnu"

%struct.expert_field = type { i32, i32 }
%struct._packet_info = type { ptr, ptr, i32, i32, %struct.nstime_t, %struct.nstime_t, %struct.nstime_t, i8, ptr, ptr, ptr, ptr, %struct._address, %struct._address, %struct._address, %struct._address, %struct._address, %struct._address, i32, ptr, i8, [3 x i8], %struct.anon, i32, i32, i32, i32, ptr, i8, ptr, ptr, i16, i16, i32, i32, i16, i32, i32, ptr, ptr, ptr, i8, i8, i16, i16, i16, i32, i16, i16, ptr, ptr, ptr, ptr, ptr, i32, i32 }
%struct.nstime_t = type { i64, i32 }
%struct._address = type { i32, i32, ptr, ptr }
%struct.anon = type { i8, [3 x i8] }

@ei_gtpv2_ie_len_invalid = internal global %struct.expert_field zeroinitializer, align 4
@hf_gtpv2_pdn_type = internal global i32 0, align 4
@.str.5 = private unnamed_addr constant [43 x i8] c"Wrong length indicated. Expected 5, got %u\00", align 1
@hf_gtpv2_pdn_ipv4 = internal global i32 0, align 4
@.str.6 = private unnamed_addr constant [8 x i8] c"IPv4 %s\00", align 1
@.str.7 = private unnamed_addr constant [44 x i8] c"Wrong length indicated. Expected 18, got %u\00", align 1
@hf_gtpv2_pdn_ipv6_len = internal global i32 0, align 4
@hf_gtpv2_pdn_ipv6 = internal global i32 0, align 4
@.str.8 = private unnamed_addr constant [8 x i8] c"IPv6 %s\00", align 1
@.str.9 = private unnamed_addr constant [44 x i8] c"Wrong length indicated. Expected 22, got %u\00", align 1
@.str.10 = private unnamed_addr constant [10 x i8] c"IPv6 %s, \00", align 1
@.str.11 = private unnamed_addr constant [43 x i8] c"Wrong length indicated. Expected 1, got %u\00", align 1

; Function Attrs: null_pointer_is_valid sspstrong uwtable
define hidden void @dissect_gtpv2_paa(ptr noundef %0, ptr noundef %1, ptr noundef %2, ptr noundef %3, i16 noundef zeroext %4, i8 noundef zeroext %5, i8 noundef zeroext %6, ptr noundef %7) #1 {
  %9 = alloca ptr, align 8
  %10 = alloca ptr, align 8
  %11 = alloca ptr, align 8
  %12 = alloca ptr, align 8
  %13 = alloca i16, align 2
  %14 = alloca i8, align 1
  %15 = alloca i8, align 1
  %16 = alloca ptr, align 8
  %17 = alloca i32, align 4
  %18 = alloca i8, align 1
  %19 = alloca i32, align 4
  store ptr %0, ptr %9, align 8
  store ptr %1, ptr %10, align 8
  store ptr %2, ptr %11, align 8
  store ptr %3, ptr %12, align 8
  store i16 %4, ptr %13, align 2
  store i8 %5, ptr %14, align 1
  store i8 %6, ptr %15, align 1
  store ptr %7, ptr %16, align 8
  call void @llvm.lifetime.start.p0(i64 4, ptr %17) #11
  store i32 0, ptr %17, align 4
  call void @llvm.lifetime.start.p0(i64 1, ptr %18) #11
  %20 = load ptr, ptr %9, align 8
  %21 = load i32, ptr %17, align 4
  %22 = call zeroext i8 @tvb_get_uint8(ptr noundef %20, i32 noundef %21)
  store i8 %22, ptr %18, align 1
  %23 = load ptr, ptr %11, align 8
  %24 = load i32, ptr @hf_gtpv2_pdn_type, align 4
  %25 = load ptr, ptr %9, align 8
  %26 = load i32, ptr %17, align 4
  %27 = call ptr @proto_tree_add_item(ptr noundef %23, i32 noundef %24, ptr noundef %25, i32 noundef %26, i32 noundef 1, i32 noundef 0)
  %28 = load i32, ptr %17, align 4
  %29 = add i32 %28, 1
  store i32 %29, ptr %17, align 4
  %30 = load i8, ptr %18, align 1
  %31 = zext i8 %30 to i32
  switch i32 %31, label %152 [
    i32 1, label %32
    i32 2, label %58
    i32 3, label %91
    i32 4, label %138
    i32 5, label %138
  ]

32:                                               ; preds = %8
  %33 = load i16, ptr %13, align 2
  %34 = zext i16 %33 to i32
  %35 = icmp ne i32 %34, 5
  br i1 %35, label %36, label %45

36:                                               ; preds = %32
  %37 = load ptr, ptr %11, align 8
  %38 = load ptr, ptr %10, align 8
  %39 = load ptr, ptr %9, align 8
  %40 = load i16, ptr %13, align 2
  %41 = zext i16 %40 to i32
  %42 = load i16, ptr %13, align 2
  %43 = zext i16 %42 to i32
  %44 = call ptr (ptr, ptr, ptr, ptr, i32, i32, ptr, ...) @proto_tree_add_expert_format(ptr noundef %37, ptr noundef %38, ptr noundef @ei_gtpv2_ie_len_invalid, ptr noundef %39, i32 noundef 0, i32 noundef %41, ptr noundef @.str.5, i32 noundef %43)
  store i32 1, ptr %19, align 4
  br label %154

45:                                               ; preds = %32
  %46 = load ptr, ptr %11, align 8
  %47 = load i32, ptr @hf_gtpv2_pdn_ipv4, align 4
  %48 = load ptr, ptr %9, align 8
  %49 = load i32, ptr %17, align 4
  %50 = call ptr @proto_tree_add_item(ptr noundef %46, i32 noundef %47, ptr noundef %48, i32 noundef %49, i32 noundef 4, i32 noundef 0)
  %51 = load ptr, ptr %12, align 8
  %52 = load ptr, ptr %10, align 8
  %53 = getelementptr inbounds nuw %struct._packet_info, ptr %52, i32 0, i32 51
  %54 = load ptr, ptr %53, align 8
  %55 = load ptr, ptr %9, align 8
  %56 = load i32, ptr %17, align 4
  %57 = call ptr @tvb_address_to_str(ptr noundef %54, ptr noundef %55, i32 noundef 2, i32 noundef %56)
  call void (ptr, ptr, ...) @proto_item_append_text(ptr noundef %51, ptr noundef @.str.6, ptr noundef %57)
  br label %153

58:                                               ; preds = %8
  %59 = load i16, ptr %13, align 2
  %60 = zext i16 %59 to i32
  %61 = icmp ne i32 %60, 18
  br i1 %61, label %62, label %71

62:                                               ; preds = %58
  %63 = load ptr, ptr %11, align 8
  %64 = load ptr, ptr %10, align 8
  %65 = load ptr, ptr %9, align 8
  %66 = load i16, ptr %13, align 2
  %67 = zext i16 %66 to i32
  %68 = load i16, ptr %13, align 2
  %69 = zext i16 %68 to i32
  %70 = call ptr (ptr, ptr, ptr, ptr, i32, i32, ptr, ...) @proto_tree_add_expert_format(ptr noundef %63, ptr noundef %64, ptr noundef @ei_gtpv2_ie_len_invalid, ptr noundef %65, i32 noundef 0, i32 noundef %67, ptr noundef @.str.7, i32 noundef %69)
  store i32 1, ptr %19, align 4
  br label %154

71:                                               ; preds = %58
  %72 = load ptr, ptr %11, align 8
  %73 = load i32, ptr @hf_gtpv2_pdn_ipv6_len, align 4
  %74 = load ptr, ptr %9, align 8
  %75 = load i32, ptr %17, align 4
  %76 = call ptr @proto_tree_add_item(ptr noundef %72, i32 noundef %73, ptr noundef %74, i32 noundef %75, i32 noundef 1, i32 noundef 0)
  %77 = load i32, ptr %17, align 4
  %78 = add i32 %77, 1
  store i32 %78, ptr %17, align 4
  %79 = load ptr, ptr %11, align 8
  %80 = load i32, ptr @hf_gtpv2_pdn_ipv6, align 4
  %81 = load ptr, ptr %9, align 8
  %82 = load i32, ptr %17, align 4
  %83 = call ptr @proto_tree_add_item(ptr noundef %79, i32 noundef %80, ptr noundef %81, i32 noundef %82, i32 noundef 16, i32 noundef 0)
  %84 = load ptr, ptr %12, align 8
  %85 = load ptr, ptr %10, align 8
  %86 = getelementptr inbounds nuw %struct._packet_info, ptr %85, i32 0, i32 51
  %87 = load ptr, ptr %86, align 8
  %88 = load ptr, ptr %9, align 8
  %89 = load i32, ptr %17, align 4
  %90 = call ptr @tvb_address_to_str(ptr noundef %87, ptr noundef %88, i32 noundef 3, i32 noundef %89)
  call void (ptr, ptr, ...) @proto_item_append_text(ptr noundef %84, ptr noundef @.str.8, ptr noundef %90)
  br label %153

91:                                               ; preds = %8
  %92 = load i16, ptr %13, align 2
  %93 = zext i16 %92 to i32
  %94 = icmp ne i32 %93, 22
  br i1 %94, label %95, label %104

95:                                               ; preds = %91
  %96 = load ptr, ptr %11, align 8
  %97 = load ptr, ptr %10, align 8
  %98 = load ptr, ptr %9, align 8
  %99 = load i16, ptr %13, align 2
  %100 = zext i16 %99 to i32
  %101 = load i16, ptr %13, align 2
  %102 = zext i16 %101 to i32
  %103 = call ptr (ptr, ptr, ptr, ptr, i32, i32, ptr, ...) @proto_tree_add_expert_format(ptr noundef %96, ptr noundef %97, ptr noundef @ei_gtpv2_ie_len_invalid, ptr noundef %98, i32 noundef 0, i32 noundef %100, ptr noundef @.str.9, i32 noundef %102)
  store i32 1, ptr %19, align 4
  br label %154

104:                                              ; preds = %91
  %105 = load ptr, ptr %11, align 8
  %106 = load i32, ptr @hf_gtpv2_pdn_ipv6_len, align 4
  %107 = load ptr, ptr %9, align 8
  %108 = load i32, ptr %17, align 4
  %109 = call ptr @proto_tree_add_item(ptr noundef %105, i32 noundef %106, ptr noundef %107, i32 noundef %108, i32 noundef 1, i32 noundef 0)
  %110 = load i32, ptr %17, align 4
  %111 = add i32 %110, 1
  store i32 %111, ptr %17, align 4
  %112 = load ptr, ptr %11, align 8
  %113 = load i32, ptr @hf_gtpv2_pdn_ipv6, align 4
  %114 = load ptr, ptr %9, align 8
  %115 = load i32, ptr %17, align 4
  %116 = call ptr @proto_tree_add_item(ptr noundef %112, i32 noundef %113, ptr noundef %114, i32 noundef %115, i32 noundef 16, i32 noundef 0)
  %117 = load ptr, ptr %12, align 8
  %118 = load ptr, ptr %10, align 8
  %119 = getelementptr inbounds nuw %struct._packet_info, ptr %118, i32 0, i32 51
  %120 = load ptr, ptr %119, align 8
  %121 = load ptr, ptr %9, align 8
  %122 = load i32, ptr %17, align 4
  %123 = call ptr @tvb_address_to_str(ptr noundef %120, ptr noundef %121, i32 noundef 3, i32 noundef %122)
  call void (ptr, ptr, ...) @proto_item_append_text(ptr noundef %117, ptr noundef @.str.10, ptr noundef %123)
  %124 = load i32, ptr %17, align 4
  %125 = add i32 %124, 16
  store i32 %125, ptr %17, align 4
  %126 = load ptr, ptr %11, align 8
  %127 = load i32, ptr @hf_gtpv2_pdn_ipv4, align 4
  %128 = load ptr, ptr %9, align 8
  %129 = load i32, ptr %17, align 4
  %130 = call ptr @proto_tree_add_item(ptr noundef %126, i32 noundef %127, ptr noundef %128, i32 noundef %129, i32 noundef 4, i32 noundef 0)
  %131 = load ptr, ptr %12, align 8
  %132 = load ptr, ptr %10, align 8
  %133 = getelementptr inbounds nuw %struct._packet_info, ptr %132, i32 0, i32 51
  %134 = load ptr, ptr %133, align 8
  %135 = load ptr, ptr %9, align 8
  %136 = load i32, ptr %17, align 4
  %137 = call ptr @tvb_address_to_str(ptr noundef %134, ptr noundef %135, i32 noundef 2, i32 noundef %136)
  call void (ptr, ptr, ...) @proto_item_append_text(ptr noundef %131, ptr noundef @.str.6, ptr noundef %137)
  br label %153

138:                                              ; preds = %8, %8
  %139 = load i16, ptr %13, align 2
  %140 = zext i16 %139 to i32
  %141 = icmp ne i32 %140, 1
  br i1 %141, label %142, label %151

142:                                              ; preds = %138
  %143 = load ptr, ptr %11, align 8
  %144 = load ptr, ptr %10, align 8
  %145 = load ptr, ptr %9, align 8
  %146 = load i16, ptr %13, align 2
  %147 = zext i16 %146 to i32
  %148 = load i16, ptr %13, align 2
  %149 = zext i16 %148 to i32
  %150 = call ptr (ptr, ptr, ptr, ptr, i32, i32, ptr, ...) @proto_tree_add_expert_format(ptr noundef %143, ptr noundef %144, ptr noundef @ei_gtpv2_ie_len_invalid, ptr noundef %145, i32 noundef 0, i32 noundef %147, ptr noundef @.str.11, i32 noundef %149)
  store i32 1, ptr %19, align 4
  br label %154

151:                                              ; preds = %138
  br label %152

152:                                              ; preds = %8, %151
  br label %153

153:                                              ; preds = %152, %104, %71, %45
  store i32 0, ptr %19, align 4
  br label %154

154:                                              ; preds = %153, %142, %95, %62, %36
  call void @llvm.lifetime.end.p0(i64 1, ptr %18) #11
  call void @llvm.lifetime.end.p0(i64 4, ptr %17) #11
  %155 = load i32, ptr %19, align 4
  switch i32 %155, label %157 [
    i32 0, label %156
    i32 1, label %156
  ]

156:                                              ; preds = %154, %154
  ret void

157:                                              ; preds = %154
  unreachable
}