; Function Attrs: null_pointer_is_valid sspstrong uwtable
define hidden void @dissect_gtpv2_paa(ptr noundef %0, ptr noundef %1, ptr noundef %2, ptr noundef %3, i16 noundef zeroext %4, i8 zeroext %5, i8 zeroext %6, ptr readnone captures(none) %7) #1 {
  %9 = tail call zeroext i8 @tvb_get_uint8(ptr noundef %0, i32 noundef 0)
  %10 = load i32, ptr @hf_gtpv2_pdn_type, align 4
  %11 = tail call ptr @proto_tree_add_item(ptr noundef %2, i32 noundef %10, ptr noundef %0, i32 noundef 0, i32 noundef 1, i32 noundef 0)
  switch i8 %9, label %54 [
    i8 1, label %12
    i8 2, label %22
    i8 3, label %34
    i8 4, label %50
    i8 5, label %50
  ]

12:                                               ; preds = %8
  %.not72 = icmp eq i16 %4, 5
  br i1 %.not72, label %16, label %13

13:                                               ; preds = %12
  %14 = zext i16 %4 to i32
  %15 = tail call ptr (ptr, ptr, ptr, ptr, i32, i32, ptr, ...) @proto_tree_add_expert_format(ptr noundef %2, ptr noundef %1, ptr noundef nonnull @ei_gtpv2_ie_len_invalid, ptr noundef %0, i32 noundef 0, i32 noundef %14, ptr noundef nonnull @.str.5, i32 noundef %14)
  br label %54

16:                                               ; preds = %12
  %17 = load i32, ptr @hf_gtpv2_pdn_ipv4, align 4
  %18 = tail call ptr @proto_tree_add_item(ptr noundef %2, i32 noundef %17, ptr noundef %0, i32 noundef 1, i32 noundef 4, i32 noundef 0)
  %19 = getelementptr inbounds nuw i8, ptr %1, i64 408
  %20 = load ptr, ptr %19, align 8
  %21 = tail call ptr @tvb_address_to_str(ptr noundef %20, ptr noundef %0, i32 noundef 2, i32 noundef 1)
  tail call void (ptr, ptr, ...) @proto_item_append_text(ptr noundef %3, ptr noundef nonnull @.str.6, ptr noundef %21)
  br label %54

22:                                               ; preds = %8
  %.not71 = icmp eq i16 %4, 18
  br i1 %.not71, label %26, label %23

23:                                               ; preds = %22
  %24 = zext i16 %4 to i32
  %25 = tail call ptr (ptr, ptr, ptr, ptr, i32, i32, ptr, ...) @proto_tree_add_expert_format(ptr noundef %2, ptr noundef %1, ptr noundef nonnull @ei_gtpv2_ie_len_invalid, ptr noundef %0, i32 noundef 0, i32 noundef %24, ptr noundef nonnull @.str.7, i32 noundef %24)
  br label %54

26:                                               ; preds = %22
  %27 = load i32, ptr @hf_gtpv2_pdn_ipv6_len, align 4
  %28 = tail call ptr @proto_tree_add_item(ptr noundef %2, i32 noundef %27, ptr noundef %0, i32 noundef 1, i32 noundef 1, i32 noundef 0)
  %29 = load i32, ptr @hf_gtpv2_pdn_ipv6, align 4
  %30 = tail call ptr @proto_tree_add_item(ptr noundef %2, i32 noundef %29, ptr noundef %0, i32 noundef 2, i32 noundef 16, i32 noundef 0)
  %31 = getelementptr inbounds nuw i8, ptr %1, i64 408
  %32 = load ptr, ptr %31, align 8
  %33 = tail call ptr @tvb_address_to_str(ptr noundef %32, ptr noundef %0, i32 noundef 3, i32 noundef 2)
  tail call void (ptr, ptr, ...) @proto_item_append_text(ptr noundef %3, ptr noundef nonnull @.str.8, ptr noundef %33)
  br label %54

34:                                               ; preds = %8
  %.not70 = icmp eq i16 %4, 22
  br i1 %.not70, label %38, label %35

35:                                               ; preds = %34
  %36 = zext i16 %4 to i32
  %37 = tail call ptr (ptr, ptr, ptr, ptr, i32, i32, ptr, ...) @proto_tree_add_expert_format(ptr noundef %2, ptr noundef %1, ptr noundef nonnull @ei_gtpv2_ie_len_invalid, ptr noundef %0, i32 noundef 0, i32 noundef %36, ptr noundef nonnull @.str.9, i32 noundef %36)
  br label %54

38:                                               ; preds = %34
  %39 = load i32, ptr @hf_gtpv2_pdn_ipv6_len, align 4
  %40 = tail call ptr @proto_tree_add_item(ptr noundef %2, i32 noundef %39, ptr noundef %0, i32 noundef 1, i32 noundef 1, i32 noundef 0)
  %41 = load i32, ptr @hf_gtpv2_pdn_ipv6, align 4
  %42 = tail call ptr @proto_tree_add_item(ptr noundef %2, i32 noundef %41, ptr noundef %0, i32 noundef 2, i32 noundef 16, i32 noundef 0)
  %43 = getelementptr inbounds nuw i8, ptr %1, i64 408
  %44 = load ptr, ptr %43, align 8
  %45 = tail call ptr @tvb_address_to_str(ptr noundef %44, ptr noundef %0, i32 noundef 3, i32 noundef 2)
  tail call void (ptr, ptr, ...) @proto_item_append_text(ptr noundef %3, ptr noundef nonnull @.str.10, ptr noundef %45)
  %46 = load i32, ptr @hf_gtpv2_pdn_ipv4, align 4
  %47 = tail call ptr @proto_tree_add_item(ptr noundef %2, i32 noundef %46, ptr noundef %0, i32 noundef 18, i32 noundef 4, i32 noundef 0)
  %48 = load ptr, ptr %43, align 8
  %49 = tail call ptr @tvb_address_to_str(ptr noundef %48, ptr noundef %0, i32 noundef 2, i32 noundef 18)
  tail call void (ptr, ptr, ...) @proto_item_append_text(ptr noundef %3, ptr noundef nonnull @.str.6, ptr noundef %49)
  br label %54

50:                                               ; preds = %8, %8
  %.not = icmp eq i16 %4, 1
  br i1 %.not, label %54, label %51

51:                                               ; preds = %50
  %52 = zext i16 %4 to i32
  %53 = tail call ptr (ptr, ptr, ptr, ptr, i32, i32, ptr, ...) @proto_tree_add_expert_format(ptr noundef %2, ptr noundef %1, ptr noundef nonnull @ei_gtpv2_ie_len_invalid, ptr noundef %0, i32 noundef 0, i32 noundef %52, ptr noundef nonnull @.str.11, i32 noundef %52)
  br label %54

54:                                               ; preds = %16, %26, %38, %50, %8, %51, %35, %23, %13
  ret void
}